; Function Attrs: mustprogress nounwind uwtable
define dso_local void @_ZNK4llvm13DataExtractor4skipERNS0_6CursorEm(ptr noundef nonnull readonly align 8 captures(none) dereferenceable(18) %0, ptr noundef nonnull align 8 dereferenceable(16) %1, i64 noundef %2) local_unnamed_addr #0 align 2 {
  %4 = getelementptr inbounds nuw i8, ptr %1, i64 8
  %5 = load ptr, ptr %4, align 8
  %.not = icmp eq ptr %5, null
  br i1 %.not, label %6, label %12

6:                                                ; preds = %3
  %7 = load i64, ptr %1, align 8
  %8 = tail call noundef zeroext i1 @_ZNK4llvm13DataExtractor11prepareReadEmmPNS_5ErrorE(ptr noundef nonnull align 8 dereferenceable(18) %0, i64 noundef %7, i64 noundef %2, ptr noundef nonnull %4)
  br i1 %8, label %9, label %12

9:                                                ; preds = %6
  %10 = load i64, ptr %1, align 8
  %11 = add i64 %10, %2
  store i64 %11, ptr %1, align 8
  br label %12

12:                                               ; preds = %6, %9, %3
  ret void
}